target datalayout = "e-m:e-p270:32:32-p271:32:32-p272:64:64-i64:64-i128:128-f80:128-n8:16:32:64-S128"
target triple = "x86_64-pc-linux-gnu"

%struct.TransformInfo = type { double, double, double, double, double, double }

; Function Attrs: nounwind uwtable
define hidden void @Transform_transform(ptr noundef %0, ptr noundef %1, ptr noundef %2) #0 {
  %4 = alloca ptr, align 8
  %5 = alloca ptr, align 8
  %6 = alloca ptr, align 8
  %7 = alloca double, align 8
  %8 = alloca double, align 8
  store ptr %0, ptr %4, align 8
  store ptr %1, ptr %5, align 8
  store ptr %2, ptr %6, align 8
  %9 = load ptr, ptr %5, align 8
  %10 = load double, ptr %9, align 8
  store double %10, ptr %7, align 8
  %11 = load ptr, ptr %6, align 8
  %12 = load double, ptr %11, align 8
  store double %12, ptr %8, align 8
  %13 = load ptr, ptr %4, align 8
  %14 = getelementptr inbounds %struct.TransformInfo, ptr %13, i32 0, i32 0
  %15 = load double, ptr %14, align 8
  %16 = load double, ptr %7, align 8
  %17 = load ptr, ptr %4, align 8
  %18 = getelementptr inbounds %struct.TransformInfo, ptr %17, i32 0, i32 1
  %19 = load double, ptr %18, align 8
  %20 = load double, ptr %8, align 8
  %21 = fmul double %19, %20
  %22 = call double @llvm.fmuladd.f64(double %15, double %16, double %21)
  %23 = load ptr, ptr %4, align 8
  %24 = getelementptr inbounds %struct.TransformInfo, ptr %23, i32 0, i32 2
  %25 = load double, ptr %24, align 8
  %26 = fadd double %22, %25
  %27 = load ptr, ptr %5, align 8
  store double %26, ptr %27, align 8
  %28 = load ptr, ptr %4, align 8
  %29 = getelementptr inbounds %struct.TransformInfo, ptr %28, i32 0, i32 3
  %30 = load double, ptr %29, align 8
  %31 = load double, ptr %7, align 8
  %32 = load ptr, ptr %4, align 8
  %33 = getelementptr inbounds %struct.TransformInfo, ptr %32, i32 0, i32 4
  %34 = load double, ptr %33, align 8
  %35 = load double, ptr %8, align 8
  %36 = fmul double %34, %35
  %37 = call double @llvm.fmuladd.f64(double %30, double %31, double %36)
  %38 = load ptr, ptr %4, align 8
  %39 = getelementptr inbounds %struct.TransformInfo, ptr %38, i32 0, i32 5
  %40 = load double, ptr %39, align 8
  %41 = fadd double %37, %40
  %42 = load ptr, ptr %6, align 8
  store double %41, ptr %42, align 8
  ret void
}