; Function Attrs: mustprogress nofree norecurse nosync nounwind willreturn memory(argmem: readwrite) uwtable
define hidden void @Transform_transform(ptr nocapture noundef readonly %0, ptr nocapture noundef %1, ptr nocapture noundef %2) local_unnamed_addr #3 {
  %4 = load double, ptr %1, align 8
  %5 = load double, ptr %2, align 8
  %6 = load double, ptr %0, align 8
  %7 = getelementptr inbounds i8, ptr %0, i64 8
  %8 = load double, ptr %7, align 8
  %9 = fmul double %5, %8
  %10 = tail call double @llvm.fmuladd.f64(double %6, double %4, double %9)
  %11 = getelementptr inbounds i8, ptr %0, i64 16
  %12 = load double, ptr %11, align 8
  %13 = fadd double %12, %10
  store double %13, ptr %1, align 8
  %14 = getelementptr inbounds i8, ptr %0, i64 24
  %15 = load double, ptr %14, align 8
  %16 = getelementptr inbounds i8, ptr %0, i64 32
  %17 = load double, ptr %16, align 8
  %18 = fmul double %5, %17
  %19 = tail call double @llvm.fmuladd.f64(double %15, double %4, double %18)
  %20 = getelementptr inbounds i8, ptr %0, i64 40
  %21 = load double, ptr %20, align 8
  %22 = fadd double %21, %19
  store double %22, ptr %2, align 8
  ret void
}